target datalayout = "e-m:e-p270:32:32-p271:32:32-p272:64:64-i64:64-i128:128-f80:128-n8:16:32:64-S128"
target triple = "x86_64-pc-linux-gnu"

%struct.Vec_Int_t_ = type { i32, i32, ptr }
%struct.Abc_Obj_t_ = type { ptr, ptr, i32, i32, %struct.Vec_Int_t_, %struct.Vec_Int_t_, %union.anon, %union.anon.0 }
%union.anon = type { ptr }
%union.anon.0 = type { ptr }
%struct.Dec_Graph_t_ = type { i32, i32, i32, i32, ptr, %struct.Dec_Edge_t_ }
%struct.Dec_Edge_t_ = type { i32 }
%struct.Dec_Node_t_ = type { %struct.Dec_Edge_t_, %struct.Dec_Edge_t_, %union.anon.1, i32 }
%union.anon.1 = type { ptr }

; Function Attrs: inlinehint nounwind uwtable
define internal ptr @Dec_GraphAppendNode(ptr noundef %0) #3 {
  %2 = alloca ptr, align 8
  %3 = alloca ptr, align 8
  store ptr %0, ptr %2, align 8, !tbaa !53
  call void @llvm.lifetime.start.p0(i64 8, ptr %3) #11
  %4 = load ptr, ptr %2, align 8, !tbaa !53
  %5 = getelementptr inbounds nuw %struct.Dec_Graph_t_, ptr %4, i32 0, i32 2
  %6 = load i32, ptr %5, align 8, !tbaa !126
  %7 = load ptr, ptr %2, align 8, !tbaa !53
  %8 = getelementptr inbounds nuw %struct.Dec_Graph_t_, ptr %7, i32 0, i32 3
  %9 = load i32, ptr %8, align 4, !tbaa !127
  %10 = icmp eq i32 %6, %9
  br i1 %10, label %11, label %45

11:                                               ; preds = %1
  %12 = load ptr, ptr %2, align 8, !tbaa !53
  %13 = getelementptr inbounds nuw %struct.Dec_Graph_t_, ptr %12, i32 0, i32 4
  %14 = load ptr, ptr %13, align 8, !tbaa !104
  %15 = icmp ne ptr %14, null
  br i1 %15, label %16, label %27

16:                                               ; preds = %11
  %17 = load ptr, ptr %2, align 8, !tbaa !53
  %18 = getelementptr inbounds nuw %struct.Dec_Graph_t_, ptr %17, i32 0, i32 4
  %19 = load ptr, ptr %18, align 8, !tbaa !104
  %20 = load ptr, ptr %2, align 8, !tbaa !53
  %21 = getelementptr inbounds nuw %struct.Dec_Graph_t_, ptr %20, i32 0, i32 3
  %22 = load i32, ptr %21, align 4, !tbaa !127
  %23 = mul nsw i32 2, %22
  %24 = sext i32 %23 to i64
  %25 = mul i64 24, %24
  %26 = call ptr @realloc(ptr noundef %19, i64 noundef %25) #14
  br label %35

27:                                               ; preds = %11
  %28 = load ptr, ptr %2, align 8, !tbaa !53
  %29 = getelementptr inbounds nuw %struct.Dec_Graph_t_, ptr %28, i32 0, i32 3
  %30 = load i32, ptr %29, align 4, !tbaa !127
  %31 = mul nsw i32 2, %30
  %32 = sext i32 %31 to i64
  %33 = mul i64 24, %32
  %34 = call noalias ptr @malloc(i64 noundef %33) #12
  br label %35

35:                                               ; preds = %27, %16
  %36 = phi ptr [ %26, %16 ], [ %34, %27 ]
  %37 = load ptr, ptr %2, align 8, !tbaa !53
  %38 = getelementptr inbounds nuw %struct.Dec_Graph_t_, ptr %37, i32 0, i32 4
  store ptr %36, ptr %38, align 8, !tbaa !104
  %39 = load ptr, ptr %2, align 8, !tbaa !53
  %40 = getelementptr inbounds nuw %struct.Dec_Graph_t_, ptr %39, i32 0, i32 3
  %41 = load i32, ptr %40, align 4, !tbaa !127
  %42 = mul nsw i32 2, %41
  %43 = load ptr, ptr %2, align 8, !tbaa !53
  %44 = getelementptr inbounds nuw %struct.Dec_Graph_t_, ptr %43, i32 0, i32 3
  store i32 %42, ptr %44, align 4, !tbaa !127
  br label %45

45:                                               ; preds = %35, %1
  %46 = load ptr, ptr %2, align 8, !tbaa !53
  %47 = getelementptr inbounds nuw %struct.Dec_Graph_t_, ptr %46, i32 0, i32 4
  %48 = load ptr, ptr %47, align 8, !tbaa !104
  %49 = load ptr, ptr %2, align 8, !tbaa !53
  %50 = getelementptr inbounds nuw %struct.Dec_Graph_t_, ptr %49, i32 0, i32 2
  %51 = load i32, ptr %50, align 8, !tbaa !126
  %52 = add nsw i32 %51, 1
  store i32 %52, ptr %50, align 8, !tbaa !126
  %53 = sext i32 %51 to i64
  %54 = getelementptr inbounds %struct.Dec_Node_t_, ptr %48, i64 %53
  store ptr %54, ptr %3, align 8, !tbaa !128
  %55 = load ptr, ptr %3, align 8, !tbaa !128
  call void @llvm.memset.p0.i64(ptr align 8 %55, i8 0, i64 24, i1 false)
  %56 = load ptr, ptr %3, align 8, !tbaa !128
  call void @llvm.lifetime.end.p0(i64 8, ptr %3) #11
  ret ptr %56
}

; Function Attrs: inlinehint nounwind uwtable
define internal void @Dec_GraphComplement(ptr noundef %0) #3 {
  %2 = alloca ptr, align 8
  store ptr %0, ptr %2, align 8, !tbaa !53
  %3 = load ptr, ptr %2, align 8, !tbaa !53
  %4 = getelementptr inbounds nuw %struct.Dec_Graph_t_, ptr %3, i32 0, i32 5
  %5 = load i32, ptr %4, align 8
  %6 = and i32 %5, 1
  %7 = xor i32 %6, 1
  %8 = load i32, ptr %4, align 8
  %9 = and i32 %7, 1
  %10 = and i32 %8, -2
  %11 = or i32 %10, %9
  store i32 %11, ptr %4, align 8
  ret void
}

; Function Attrs: inlinehint nounwind uwtable
define internal void @Dec_GraphSetRoot(ptr noundef %0, i32 %1) #3 {
  %3 = alloca %struct.Dec_Edge_t_, align 4
  %4 = alloca ptr, align 8
  %5 = getelementptr inbounds nuw %struct.Dec_Edge_t_, ptr %3, i32 0, i32 0
  store i32 %1, ptr %5, align 4
  store ptr %0, ptr %4, align 8, !tbaa !53
  %6 = load ptr, ptr %4, align 8, !tbaa !53
  %7 = getelementptr inbounds nuw %struct.Dec_Graph_t_, ptr %6, i32 0, i32 5
  call void @llvm.memcpy.p0.p0.i64(ptr align 8 %7, ptr align 4 %3, i64 4, i1 false), !tbaa.struct !124
  ret void
}

; Function Attrs: inlinehint nounwind uwtable
define internal i32 @Dec_GraphAddNodeAnd(ptr noundef %0, i32 %1, i32 %2) #3 {
  %4 = alloca %struct.Dec_Edge_t_, align 4
  %5 = alloca %struct.Dec_Edge_t_, align 4
  %6 = alloca %struct.Dec_Edge_t_, align 4
  %7 = alloca ptr, align 8
  %8 = alloca ptr, align 8
  %9 = getelementptr inbounds nuw %struct.Dec_Edge_t_, ptr %5, i32 0, i32 0
  store i32 %1, ptr %9, align 4
  %10 = getelementptr inbounds nuw %struct.Dec_Edge_t_, ptr %6, i32 0, i32 0
  store i32 %2, ptr %10, align 4
  store ptr %0, ptr %7, align 8, !tbaa !53
  call void @llvm.lifetime.start.p0(i64 8, ptr %8) #11
  %11 = load ptr, ptr %7, align 8, !tbaa !53
  %12 = call ptr @Dec_GraphAppendNode(ptr noundef %11)
  store ptr %12, ptr %8, align 8, !tbaa !128
  %13 = load ptr, ptr %8, align 8, !tbaa !128
  %14 = getelementptr inbounds nuw %struct.Dec_Node_t_, ptr %13, i32 0, i32 0
  call void @llvm.memcpy.p0.p0.i64(ptr align 8 %14, ptr align 4 %5, i64 4, i1 false), !tbaa.struct !124
  %15 = load ptr, ptr %8, align 8, !tbaa !128
  %16 = getelementptr inbounds nuw %struct.Dec_Node_t_, ptr %15, i32 0, i32 1
  call void @llvm.memcpy.p0.p0.i64(ptr align 4 %16, ptr align 4 %6, i64 4, i1 false), !tbaa.struct !124
  %17 = load i32, ptr %5, align 4
  %18 = and i32 %17, 1
  %19 = load ptr, ptr %8, align 8, !tbaa !128
  %20 = getelementptr inbounds nuw %struct.Dec_Node_t_, ptr %19, i32 0, i32 3
  %21 = load i32, ptr %20, align 8
  %22 = and i32 %18, 1
  %23 = shl i32 %22, 15
  %24 = and i32 %21, -32769
  %25 = or i32 %24, %23
  store i32 %25, ptr %20, align 8
  %26 = load i32, ptr %6, align 4
  %27 = and i32 %26, 1
  %28 = load ptr, ptr %8, align 8, !tbaa !128
  %29 = getelementptr inbounds nuw %struct.Dec_Node_t_, ptr %28, i32 0, i32 3
  %30 = load i32, ptr %29, align 8
  %31 = and i32 %27, 1
  %32 = shl i32 %31, 16
  %33 = and i32 %30, -65537
  %34 = or i32 %33, %32
  store i32 %34, ptr %29, align 8
  %35 = load ptr, ptr %7, align 8, !tbaa !53
  %36 = getelementptr inbounds nuw %struct.Dec_Graph_t_, ptr %35, i32 0, i32 2
  %37 = load i32, ptr %36, align 8, !tbaa !126
  %38 = sub nsw i32 %37, 1
  %39 = call i32 @Dec_EdgeCreate(i32 noundef %38, i32 noundef 0)
  %40 = getelementptr inbounds nuw %struct.Dec_Edge_t_, ptr %4, i32 0, i32 0
  store i32 %39, ptr %40, align 4
  call void @llvm.lifetime.end.p0(i64 8, ptr %8) #11
  %41 = getelementptr inbounds nuw %struct.Dec_Edge_t_, ptr %4, i32 0, i32 0
  %42 = load i32, ptr %41, align 4
  ret i32 %42
}

; Function Attrs: inlinehint nounwind uwtable
define internal i32 @Dec_GraphAddNodeOr(ptr noundef %0, i32 %1, i32 %2) #3 {
  %4 = alloca %struct.Dec_Edge_t_, align 4
  %5 = alloca %struct.Dec_Edge_t_, align 4
  %6 = alloca %struct.Dec_Edge_t_, align 4
  %7 = alloca ptr, align 8
  %8 = alloca ptr, align 8
  %9 = getelementptr inbounds nuw %struct.Dec_Edge_t_, ptr %5, i32 0, i32 0
  store i32 %1, ptr %9, align 4
  %10 = getelementptr inbounds nuw %struct.Dec_Edge_t_, ptr %6, i32 0, i32 0
  store i32 %2, ptr %10, align 4
  store ptr %0, ptr %7, align 8, !tbaa !53
  call void @llvm.lifetime.start.p0(i64 8, ptr %8) #11
  %11 = load ptr, ptr %7, align 8, !tbaa !53
  %12 = call ptr @Dec_GraphAppendNode(ptr noundef %11)
  store ptr %12, ptr %8, align 8, !tbaa !128
  %13 = load ptr, ptr %8, align 8, !tbaa !128
  %14 = getelementptr inbounds nuw %struct.Dec_Node_t_, ptr %13, i32 0, i32 0
  call void @llvm.memcpy.p0.p0.i64(ptr align 8 %14, ptr align 4 %5, i64 4, i1 false), !tbaa.struct !124
  %15 = load ptr, ptr %8, align 8, !tbaa !128
  %16 = getelementptr inbounds nuw %struct.Dec_Node_t_, ptr %15, i32 0, i32 1
  call void @llvm.memcpy.p0.p0.i64(ptr align 4 %16, ptr align 4 %6, i64 4, i1 false), !tbaa.struct !124
  %17 = load i32, ptr %5, align 4
  %18 = and i32 %17, 1
  %19 = load ptr, ptr %8, align 8, !tbaa !128
  %20 = getelementptr inbounds nuw %struct.Dec_Node_t_, ptr %19, i32 0, i32 3
  %21 = load i32, ptr %20, align 8
  %22 = and i32 %18, 1
  %23 = shl i32 %22, 15
  %24 = and i32 %21, -32769
  %25 = or i32 %24, %23
  store i32 %25, ptr %20, align 8
  %26 = load i32, ptr %6, align 4
  %27 = and i32 %26, 1
  %28 = load ptr, ptr %8, align 8, !tbaa !128
  %29 = getelementptr inbounds nuw %struct.Dec_Node_t_, ptr %28, i32 0, i32 3
  %30 = load i32, ptr %29, align 8
  %31 = and i32 %27, 1
  %32 = shl i32 %31, 16
  %33 = and i32 %30, -65537
  %34 = or i32 %33, %32
  store i32 %34, ptr %29, align 8
  %35 = load ptr, ptr %8, align 8, !tbaa !128
  %36 = getelementptr inbounds nuw %struct.Dec_Node_t_, ptr %35, i32 0, i32 3
  %37 = load i32, ptr %36, align 8
  %38 = and i32 %37, -16385
  %39 = or i32 %38, 16384
  store i32 %39, ptr %36, align 8
  %40 = load ptr, ptr %8, align 8, !tbaa !128
  %41 = getelementptr inbounds nuw %struct.Dec_Node_t_, ptr %40, i32 0, i32 0
  %42 = load i32, ptr %41, align 8
  %43 = and i32 %42, 1
  %44 = icmp ne i32 %43, 0
  %45 = xor i1 %44, true
  %46 = zext i1 %45 to i32
  %47 = load ptr, ptr %8, align 8, !tbaa !128
  %48 = getelementptr inbounds nuw %struct.Dec_Node_t_, ptr %47, i32 0, i32 0
  %49 = load i32, ptr %48, align 8
  %50 = and i32 %46, 1
  %51 = and i32 %49, -2
  %52 = or i32 %51, %50
  store i32 %52, ptr %48, align 8
  %53 = load ptr, ptr %8, align 8, !tbaa !128
  %54 = getelementptr inbounds nuw %struct.Dec_Node_t_, ptr %53, i32 0, i32 1
  %55 = load i32, ptr %54, align 4
  %56 = and i32 %55, 1
  %57 = icmp ne i32 %56, 0
  %58 = xor i1 %57, true
  %59 = zext i1 %58 to i32
  %60 = load ptr, ptr %8, align 8, !tbaa !128
  %61 = getelementptr inbounds nuw %struct.Dec_Node_t_, ptr %60, i32 0, i32 1
  %62 = load i32, ptr %61, align 4
  %63 = and i32 %59, 1
  %64 = and i32 %62, -2
  %65 = or i32 %64, %63
  store i32 %65, ptr %61, align 4
  %66 = load ptr, ptr %7, align 8, !tbaa !53
  %67 = getelementptr inbounds nuw %struct.Dec_Graph_t_, ptr %66, i32 0, i32 2
  %68 = load i32, ptr %67, align 8, !tbaa !126
  %69 = sub nsw i32 %68, 1
  %70 = call i32 @Dec_EdgeCreate(i32 noundef %69, i32 noundef 1)
  %71 = getelementptr inbounds nuw %struct.Dec_Edge_t_, ptr %4, i32 0, i32 0
  store i32 %70, ptr %71, align 4
  call void @llvm.lifetime.end.p0(i64 8, ptr %8) #11
  %72 = getelementptr inbounds nuw %struct.Dec_Edge_t_, ptr %4, i32 0, i32 0
  %73 = load i32, ptr %72, align 4
  ret i32 %73
}

; Function Attrs: inlinehint nounwind uwtable
define internal i32 @Dec_EdgeCreate(i32 noundef %0, i32 noundef %1) #3 {
  %3 = alloca %struct.Dec_Edge_t_, align 4
  %4 = alloca i32, align 4
  %5 = alloca i32, align 4
  store i32 %0, ptr %4, align 4, !tbaa !8
  store i32 %1, ptr %5, align 4, !tbaa !8
  store i32 0, ptr %3, align 4
  %6 = load i32, ptr %5, align 4, !tbaa !8
  %7 = load i32, ptr %3, align 4
  %8 = and i32 %6, 1
  %9 = and i32 %7, -2
  %10 = or i32 %9, %8
  store i32 %10, ptr %3, align 4
  %11 = load i32, ptr %4, align 4, !tbaa !8
  %12 = load i32, ptr %3, align 4
  %13 = and i32 %11, 1073741823
  %14 = shl i32 %13, 1
  %15 = and i32 %12, -2147483647
  %16 = or i32 %15, %14
  store i32 %16, ptr %3, align 4
  %17 = getelementptr inbounds nuw %struct.Dec_Edge_t_, ptr %3, i32 0, i32 0
  %18 = load i32, ptr %17, align 4
  ret i32 %18
}

; Function Attrs: inlinehint nounwind uwtable
define internal i32 @Abc_ObjIsComplement(ptr noundef %0) #3 {
  %2 = alloca ptr, align 8
  store ptr %0, ptr %2, align 8, !tbaa !35
  %3 = load ptr, ptr %2, align 8, !tbaa !35
  %4 = ptrtoint ptr %3 to i64
  %5 = and i64 %4, 1
  %6 = trunc i64 %5 to i32
  ret i32 %6
}

; Function Attrs: inlinehint nounwind uwtable
define internal ptr @Dec_GraphNode(ptr noundef %0, i32 noundef %1) #3 {
  %3 = alloca ptr, align 8
  %4 = alloca i32, align 4
  store ptr %0, ptr %3, align 8, !tbaa !53
  store i32 %1, ptr %4, align 4, !tbaa !8
  %5 = load ptr, ptr %3, align 8, !tbaa !53
  %6 = getelementptr inbounds nuw %struct.Dec_Graph_t_, ptr %5, i32 0, i32 4
  %7 = load ptr, ptr %6, align 8, !tbaa !104
  %8 = load i32, ptr %4, align 4, !tbaa !8
  %9 = sext i32 %8 to i64
  %10 = getelementptr inbounds %struct.Dec_Node_t_, ptr %7, i64 %9
  ret ptr %10
}

; Function Attrs: inlinehint nounwind uwtable
define internal ptr @Abc_ObjRegular(ptr noundef %0) #3 {
  %2 = alloca ptr, align 8
  store ptr %0, ptr %2, align 8, !tbaa !35
  %3 = load ptr, ptr %2, align 8, !tbaa !35
  %4 = ptrtoint ptr %3 to i64
  %5 = and i64 %4, -2
  %6 = inttoptr i64 %5 to ptr
  ret ptr %6
}

; Function Attrs: inlinehint nounwind uwtable
define internal ptr @Dec_GraphCreate(i32 noundef %0) #3 {
  %2 = alloca i32, align 4
  %3 = alloca ptr, align 8
  store i32 %0, ptr %2, align 4, !tbaa !8
  call void @llvm.lifetime.start.p0(i64 8, ptr %3) #11
  %4 = call noalias ptr @malloc(i64 noundef 32) #12
  store ptr %4, ptr %3, align 8, !tbaa !53
  %5 = load ptr, ptr %3, align 8, !tbaa !53
  call void @llvm.memset.p0.i64(ptr align 8 %5, i8 0, i64 32, i1 false)
  %6 = load i32, ptr %2, align 4, !tbaa !8
  %7 = load ptr, ptr %3, align 8, !tbaa !53
  %8 = getelementptr inbounds nuw %struct.Dec_Graph_t_, ptr %7, i32 0, i32 1
  store i32 %6, ptr %8, align 4, !tbaa !125
  %9 = load i32, ptr %2, align 4, !tbaa !8
  %10 = load ptr, ptr %3, align 8, !tbaa !53
  %11 = getelementptr inbounds nuw %struct.Dec_Graph_t_, ptr %10, i32 0, i32 2
  store i32 %9, ptr %11, align 8, !tbaa !126
  %12 = load i32, ptr %2, align 4, !tbaa !8
  %13 = mul nsw i32 2, %12
  %14 = add nsw i32 %13, 50
  %15 = load ptr, ptr %3, align 8, !tbaa !53
  %16 = getelementptr inbounds nuw %struct.Dec_Graph_t_, ptr %15, i32 0, i32 3
  store i32 %14, ptr %16, align 4, !tbaa !127
  %17 = load ptr, ptr %3, align 8, !tbaa !53
  %18 = getelementptr inbounds nuw %struct.Dec_Graph_t_, ptr %17, i32 0, i32 3
  %19 = load i32, ptr %18, align 4, !tbaa !127
  %20 = sext i32 %19 to i64
  %21 = mul i64 24, %20
  %22 = call noalias ptr @malloc(i64 noundef %21) #12
  %23 = load ptr, ptr %3, align 8, !tbaa !53
  %24 = getelementptr inbounds nuw %struct.Dec_Graph_t_, ptr %23, i32 0, i32 4
  store ptr %22, ptr %24, align 8, !tbaa !104
  %25 = load ptr, ptr %3, align 8, !tbaa !53
  %26 = getelementptr inbounds nuw %struct.Dec_Graph_t_, ptr %25, i32 0, i32 4
  %27 = load ptr, ptr %26, align 8, !tbaa !104
  %28 = load ptr, ptr %3, align 8, !tbaa !53
  %29 = getelementptr inbounds nuw %struct.Dec_Graph_t_, ptr %28, i32 0, i32 2
  %30 = load i32, ptr %29, align 8, !tbaa !126
  %31 = sext i32 %30 to i64
  %32 = mul i64 24, %31
  call void @llvm.memset.p0.i64(ptr align 8 %27, i8 0, i64 %32, i1 false)
  %33 = load ptr, ptr %3, align 8, !tbaa !53
  call void @llvm.lifetime.end.p0(i64 8, ptr %3) #11
  ret ptr %33
}

; Function Attrs: nounwind uwtable
define ptr @Abc_ManResubQuit1(ptr noundef %0, ptr noundef %1, ptr noundef %2, i32 noundef %3) #0 {
  %5 = alloca ptr, align 8
  %6 = alloca ptr, align 8
  %7 = alloca ptr, align 8
  %8 = alloca i32, align 4
  %9 = alloca ptr, align 8
  %10 = alloca %struct.Dec_Edge_t_, align 4
  %11 = alloca %struct.Dec_Edge_t_, align 4
  %12 = alloca %struct.Dec_Edge_t_, align 4
  %13 = alloca %struct.Dec_Edge_t_, align 4
  %14 = alloca %struct.Dec_Edge_t_, align 4
  %15 = alloca %struct.Dec_Edge_t_, align 4
  %16 = alloca %struct.Dec_Edge_t_, align 4
  store ptr %0, ptr %5, align 8, !tbaa !35
  store ptr %1, ptr %6, align 8, !tbaa !35
  store ptr %2, ptr %7, align 8, !tbaa !35
  store i32 %3, ptr %8, align 4, !tbaa !8
  call void @llvm.lifetime.start.p0(i64 8, ptr %9) #11
  call void @llvm.lifetime.start.p0(i64 4, ptr %10) #11
  call void @llvm.lifetime.start.p0(i64 4, ptr %11) #11
  call void @llvm.lifetime.start.p0(i64 4, ptr %12) #11
  %17 = call ptr @Dec_GraphCreate(i32 noundef 2)
  store ptr %17, ptr %9, align 8, !tbaa !53
  %18 = load ptr, ptr %6, align 8, !tbaa !35
  %19 = call ptr @Abc_ObjRegular(ptr noundef %18)
  %20 = load ptr, ptr %9, align 8, !tbaa !53
  %21 = call ptr @Dec_GraphNode(ptr noundef %20, i32 noundef 0)
  %22 = getelementptr inbounds nuw %struct.Dec_Node_t_, ptr %21, i32 0, i32 2
  store ptr %19, ptr %22, align 8, !tbaa !37
  %23 = load ptr, ptr %7, align 8, !tbaa !35
  %24 = call ptr @Abc_ObjRegular(ptr noundef %23)
  %25 = load ptr, ptr %9, align 8, !tbaa !53
  %26 = call ptr @Dec_GraphNode(ptr noundef %25, i32 noundef 1)
  %27 = getelementptr inbounds nuw %struct.Dec_Node_t_, ptr %26, i32 0, i32 2
  store ptr %24, ptr %27, align 8, !tbaa !37
  call void @llvm.lifetime.start.p0(i64 4, ptr %13) #11
  %28 = load ptr, ptr %6, align 8, !tbaa !35
  %29 = call ptr @Abc_ObjRegular(ptr noundef %28)
  %30 = getelementptr inbounds nuw %struct.Abc_Obj_t_, ptr %29, i32 0, i32 3
  %31 = load i32, ptr %30, align 4
  %32 = lshr i32 %31, 7
  %33 = and i32 %32, 1
  %34 = load ptr, ptr %6, align 8, !tbaa !35
  %35 = call i32 @Abc_ObjIsComplement(ptr noundef %34)
  %36 = xor i32 %33, %35
  %37 = call i32 @Dec_EdgeCreate(i32 noundef 0, i32 noundef %36)
  %38 = getelementptr inbounds nuw %struct.Dec_Edge_t_, ptr %13, i32 0, i32 0
  store i32 %37, ptr %38, align 4
  call void @llvm.memcpy.p0.p0.i64(ptr align 4 %11, ptr align 4 %13, i64 4, i1 false), !tbaa.struct !124
  call void @llvm.lifetime.end.p0(i64 4, ptr %13) #11
  call void @llvm.lifetime.start.p0(i64 4, ptr %14) #11
  %39 = load ptr, ptr %7, align 8, !tbaa !35
  %40 = call ptr @Abc_ObjRegular(ptr noundef %39)
  %41 = getelementptr inbounds nuw %struct.Abc_Obj_t_, ptr %40, i32 0, i32 3
  %42 = load i32, ptr %41, align 4
  %43 = lshr i32 %42, 7
  %44 = and i32 %43, 1
  %45 = load ptr, ptr %7, align 8, !tbaa !35
  %46 = call i32 @Abc_ObjIsComplement(ptr noundef %45)
  %47 = xor i32 %44, %46
  %48 = call i32 @Dec_EdgeCreate(i32 noundef 1, i32 noundef %47)
  %49 = getelementptr inbounds nuw %struct.Dec_Edge_t_, ptr %14, i32 0, i32 0
  store i32 %48, ptr %49, align 4
  call void @llvm.memcpy.p0.p0.i64(ptr align 4 %12, ptr align 4 %14, i64 4, i1 false), !tbaa.struct !124
  call void @llvm.lifetime.end.p0(i64 4, ptr %14) #11
  %50 = load i32, ptr %8, align 4, !tbaa !8
  %51 = icmp ne i32 %50, 0
  br i1 %51, label %52, label %60

52:                                               ; preds = %4
  call void @llvm.lifetime.start.p0(i64 4, ptr %15) #11
  %53 = load ptr, ptr %9, align 8, !tbaa !53
  %54 = getelementptr inbounds nuw %struct.Dec_Edge_t_, ptr %11, i32 0, i32 0
  %55 = load i32, ptr %54, align 4
  %56 = getelementptr inbounds nuw %struct.Dec_Edge_t_, ptr %12, i32 0, i32 0
  %57 = load i32, ptr %56, align 4
  %58 = call i32 @Dec_GraphAddNodeOr(ptr noundef %53, i32 %55, i32 %57)
  %59 = getelementptr inbounds nuw %struct.Dec_Edge_t_, ptr %15, i32 0, i32 0
  store i32 %58, ptr %59, align 4
  call void @llvm.memcpy.p0.p0.i64(ptr align 4 %10, ptr align 4 %15, i64 4, i1 false), !tbaa.struct !124
  call void @llvm.lifetime.end.p0(i64 4, ptr %15) #11
  br label %68

60:                                               ; preds = %4
  call void @llvm.lifetime.start.p0(i64 4, ptr %16) #11
  %61 = load ptr, ptr %9, align 8, !tbaa !53
  %62 = getelementptr inbounds nuw %struct.Dec_Edge_t_, ptr %11, i32 0, i32 0
  %63 = load i32, ptr %62, align 4
  %64 = getelementptr inbounds nuw %struct.Dec_Edge_t_, ptr %12, i32 0, i32 0
  %65 = load i32, ptr %64, align 4
  %66 = call i32 @Dec_GraphAddNodeAnd(ptr noundef %61, i32 %63, i32 %65)
  %67 = getelementptr inbounds nuw %struct.Dec_Edge_t_, ptr %16, i32 0, i32 0
  store i32 %66, ptr %67, align 4
  call void @llvm.memcpy.p0.p0.i64(ptr align 4 %10, ptr align 4 %16, i64 4, i1 false), !tbaa.struct !124
  call void @llvm.lifetime.end.p0(i64 4, ptr %16) #11
  br label %68

68:                                               ; preds = %60, %52
  %69 = load ptr, ptr %9, align 8, !tbaa !53
  %70 = getelementptr inbounds nuw %struct.Dec_Edge_t_, ptr %10, i32 0, i32 0
  %71 = load i32, ptr %70, align 4
  call void @Dec_GraphSetRoot(ptr noundef %69, i32 %71)
  %72 = load ptr, ptr %5, align 8, !tbaa !35
  %73 = getelementptr inbounds nuw %struct.Abc_Obj_t_, ptr %72, i32 0, i32 3
  %74 = load i32, ptr %73, align 4
  %75 = lshr i32 %74, 7
  %76 = and i32 %75, 1
  %77 = icmp ne i32 %76, 0
  br i1 %77, label %78, label %80

78:                                               ; preds = %68
  %79 = load ptr, ptr %9, align 8, !tbaa !53
  call void @Dec_GraphComplement(ptr noundef %79)
  br label %80

80:                                               ; preds = %78, %68
  %81 = load ptr, ptr %9, align 8, !tbaa !53
  call void @llvm.lifetime.end.p0(i64 4, ptr %12) #11
  call void @llvm.lifetime.end.p0(i64 4, ptr %11) #11
  call void @llvm.lifetime.end.p0(i64 4, ptr %10) #11
  call void @llvm.lifetime.end.p0(i64 8, ptr %9) #11
  ret ptr %81
}