; Function Attrs: mustprogress nofree nounwind willreturn memory(readwrite, argmem: read) uwtable
define noalias noundef ptr @Abc_ManResubQuit1(ptr noundef readonly captures(none) %0, ptr noundef %1, ptr noundef %2, i32 noundef %3) local_unnamed_addr #6 {
  %calloc.i = tail call dereferenceable_or_null(32) ptr @calloc(i64 1, i64 32)
  %5 = getelementptr inbounds nuw i8, ptr %calloc.i, i64 4
  store i32 2, ptr %5, align 4, !tbaa !108
  %6 = getelementptr inbounds nuw i8, ptr %calloc.i, i64 8
  %7 = getelementptr inbounds nuw i8, ptr %calloc.i, i64 12
  store i32 54, ptr %7, align 4, !tbaa !110
  %8 = tail call noalias dereferenceable_or_null(1296) ptr @malloc(i64 noundef 1296) #20
  %9 = getelementptr inbounds nuw i8, ptr %calloc.i, i64 16
  store ptr %8, ptr %9, align 8, !tbaa !111
  tail call void @llvm.memset.p0.i64(ptr noundef nonnull align 8 dereferenceable(48) %8, i8 0, i64 48, i1 false)
  %10 = ptrtoint ptr %1 to i64
  %11 = and i64 %10, -2
  %12 = inttoptr i64 %11 to ptr
  %13 = getelementptr inbounds nuw i8, ptr %8, i64 8
  store ptr %12, ptr %13, align 8, !tbaa !57
  %14 = ptrtoint ptr %2 to i64
  %15 = and i64 %14, -2
  %16 = inttoptr i64 %15 to ptr
  %17 = getelementptr inbounds nuw i8, ptr %8, i64 32
  store ptr %16, ptr %17, align 8, !tbaa !57
  %18 = getelementptr inbounds nuw i8, ptr %12, i64 20
  %19 = load i32, ptr %18, align 4
  %20 = lshr i32 %19, 7
  %21 = trunc i64 %10 to i32
  %22 = xor i32 %20, %21
  %23 = and i32 %22, 1
  %24 = getelementptr inbounds nuw i8, ptr %16, i64 20
  %25 = load i32, ptr %24, align 4
  %26 = lshr i32 %25, 7
  %27 = trunc i64 %14 to i32
  %28 = xor i32 %26, %27
  %29 = and i32 %28, 1
  %.not = icmp eq i32 %3, 0
  br i1 %.not, label %Dec_GraphAddNodeAnd.exit, label %Dec_GraphAddNodeOr.exit

Dec_GraphAddNodeOr.exit:                          ; preds = %4
  store i32 3, ptr %6, align 8, !tbaa !109
  %30 = getelementptr inbounds nuw i8, ptr %8, i64 56
  tail call void @llvm.memset.p0.i64(ptr noundef nonnull align 8 dereferenceable(24) %30, i8 0, i64 16, i1 false)
  %31 = shl nuw nsw i32 %23, 15
  %32 = shl nuw nsw i32 %29, 16
  %33 = or disjoint i32 %32, %31
  %34 = or disjoint i32 %33, 16384
  %35 = xor i32 %23, 1
  %36 = xor i32 %29, 3
  br label %42

Dec_GraphAddNodeAnd.exit:                         ; preds = %4
  %37 = or disjoint i32 %29, 2
  store i32 3, ptr %6, align 8, !tbaa !109
  %38 = getelementptr inbounds nuw i8, ptr %8, i64 56
  tail call void @llvm.memset.p0.i64(ptr noundef nonnull align 8 dereferenceable(24) %38, i8 0, i64 16, i1 false)
  %39 = shl nuw nsw i32 %23, 15
  %40 = shl nuw nsw i32 %29, 16
  %41 = or disjoint i32 %40, %39
  br label %42

42:                                               ; preds = %Dec_GraphAddNodeAnd.exit, %Dec_GraphAddNodeOr.exit
  %.sink31 = phi i32 [ %23, %Dec_GraphAddNodeAnd.exit ], [ %35, %Dec_GraphAddNodeOr.exit ]
  %.sink30 = phi i32 [ %37, %Dec_GraphAddNodeAnd.exit ], [ %36, %Dec_GraphAddNodeOr.exit ]
  %.sink = phi i32 [ %41, %Dec_GraphAddNodeAnd.exit ], [ %34, %Dec_GraphAddNodeOr.exit ]
  %.sroa.08.0 = phi i32 [ 4, %Dec_GraphAddNodeAnd.exit ], [ 5, %Dec_GraphAddNodeOr.exit ]
  %43 = getelementptr inbounds nuw i8, ptr %8, i64 48
  store i32 %.sink31, ptr %43, align 8
  %44 = getelementptr inbounds nuw i8, ptr %8, i64 52
  store i32 %.sink30, ptr %44, align 4
  %45 = getelementptr inbounds nuw i8, ptr %8, i64 64
  store i32 %.sink, ptr %45, align 8
  %46 = getelementptr inbounds nuw i8, ptr %calloc.i, i64 24
  store i32 %.sroa.08.0, ptr %46, align 8, !tbaa !57
  %47 = getelementptr inbounds nuw i8, ptr %0, i64 20
  %48 = load i32, ptr %47, align 4
  %49 = and i32 %48, 128
  %.not22 = icmp eq i32 %49, 0
  br i1 %.not22, label %52, label %50

50:                                               ; preds = %42
  %51 = xor i32 %.sroa.08.0, 1
  store i32 %51, ptr %46, align 8
  br label %52

52:                                               ; preds = %50, %42
  ret ptr %calloc.i
}